(dp1
S'diamondash_plugin'
p2
ccopy_reg
_reconstructor
p3
(ctwisted.plugin
CachedDropin
p4
c__builtin__
object
p5
NtRp6
(dp7
S'moduleName'
p8
S'twisted.plugins.diamondash_plugin'
p9
sS'description'
p10
NsS'plugins'
p11
(lp12
g3
(ctwisted.plugin
CachedPlugin
p13
g5
NtRp14
(dp15
S'provided'
p16
(lp17
ctwisted.plugin
IPlugin
p18
actwisted.application.service
IServiceMaker
p19
asS'dropin'
p20
g6
sS'name'
p21
S'serviceMaker'
p22
sg10
S'\n    Utility class to simplify the definition of L{IServiceMaker} plugins.\n    '
p23
sbasbsS'diamondash'
p24
g3
(g4
g5
NtRp25
(dp26
g8
S'twisted.plugins.diamondash'
p27
sg10
Nsg11
(lp28
g3
(g13
g5
NtRp29
(dp30
g16
(lp31
g18
ag19
asg20
g25
sg21
S'serviceMaker'
p32
sg10
S'\n    Utility class to simplify the definition of L{IServiceMaker} plugins.\n    '
p33
sbasbs.